target datalayout = "e-m:e-p270:32:32-p271:32:32-p272:64:64-i64:64-i128:128-f80:128-n8:16:32:64-S128"
target triple = "x86_64-pc-linux-gnu"

%struct.polymorphic_actuals = type { i32, i32, i32, i32 }

@.str.1 = private unnamed_addr constant [10 x i8] c"funcapi.c\00", align 1
@.str.30 = private unnamed_addr constant [37 x i8] c"could not determine polymorphic type\00", align 1
@.str.32 = private unnamed_addr constant [48 x i8] c"could not find multirange type for data type %s\00", align 1
@__func__.resolve_anymultirange_from_others = private unnamed_addr constant [34 x i8] c"resolve_anymultirange_from_others\00", align 1

; Function Attrs: nounwind uwtable
define internal void @resolve_anymultirange_from_others(ptr noundef %0) #0 {
  %2 = alloca ptr, align 8
  %3 = alloca i32, align 4
  %4 = alloca i32, align 4
  store ptr %0, ptr %2, align 8
  %5 = load ptr, ptr %2, align 8
  %6 = getelementptr inbounds nuw %struct.polymorphic_actuals, ptr %5, i32 0, i32 2
  %7 = load i32, ptr %6, align 4
  %8 = icmp ne i32 %7, 0
  br i1 %8, label %9, label %38

9:                                                ; preds = %1
  call void @llvm.lifetime.start.p0(i64 4, ptr %3) #7
  %10 = load ptr, ptr %2, align 8
  %11 = getelementptr inbounds nuw %struct.polymorphic_actuals, ptr %10, i32 0, i32 2
  %12 = load i32, ptr %11, align 4
  %13 = call i32 @getBaseType(i32 noundef %12)
  store i32 %13, ptr %3, align 4
  call void @llvm.lifetime.start.p0(i64 4, ptr %4) #7
  %14 = load i32, ptr %3, align 4
  %15 = call i32 @get_range_multirange(i32 noundef %14)
  store i32 %15, ptr %4, align 4
  %16 = load i32, ptr %4, align 4
  %17 = icmp ne i32 %16, 0
  br i1 %17, label %34, label %18

18:                                               ; preds = %9
  br label %19

19:                                               ; preds = %18
  br i1 true, label %20, label %22

20:                                               ; preds = %19
  %21 = call zeroext i1 @errstart_cold(i32 noundef 21, ptr noundef null) #8
  br i1 %21, label %24, label %31

22:                                               ; preds = %19
  %23 = call zeroext i1 @errstart(i32 noundef 21, ptr noundef null)
  br i1 %23, label %24, label %31

24:                                               ; preds = %22, %20
  %25 = call i32 @errcode(i32 noundef 67137668)
  %26 = load ptr, ptr %2, align 8
  %27 = getelementptr inbounds nuw %struct.polymorphic_actuals, ptr %26, i32 0, i32 2
  %28 = load i32, ptr %27, align 4
  %29 = call ptr @format_type_be(i32 noundef %28)
  %30 = call i32 (ptr, ...) @errmsg(ptr noundef @.str.32, ptr noundef %29)
  call void @errfinish(ptr noundef @.str.1, i32 noundef 726, ptr noundef @__func__.resolve_anymultirange_from_others)
  br label %31

31:                                               ; preds = %24, %22, %20
  unreachable

32:                                               ; No predecessors!
  br label %33

33:                                               ; preds = %32
  br label %34

34:                                               ; preds = %33, %9
  %35 = load i32, ptr %4, align 4
  %36 = load ptr, ptr %2, align 8
  %37 = getelementptr inbounds nuw %struct.polymorphic_actuals, ptr %36, i32 0, i32 3
  store i32 %35, ptr %37, align 4
  call void @llvm.lifetime.end.p0(i64 4, ptr %4) #7
  call void @llvm.lifetime.end.p0(i64 4, ptr %3) #7
  br label %48

38:                                               ; preds = %1
  br label %39

39:                                               ; preds = %38
  br i1 true, label %40, label %42

40:                                               ; preds = %39
  %41 = call zeroext i1 @errstart_cold(i32 noundef 21, ptr noundef null) #8
  br i1 %41, label %44, label %46

42:                                               ; preds = %39
  %43 = call zeroext i1 @errstart(i32 noundef 21, ptr noundef null)
  br i1 %43, label %44, label %46

44:                                               ; preds = %42, %40
  %45 = call i32 (ptr, ...) @errmsg_internal(ptr noundef @.str.30)
  call void @errfinish(ptr noundef @.str.1, i32 noundef 730, ptr noundef @__func__.resolve_anymultirange_from_others)
  br label %46

46:                                               ; preds = %44, %42, %40
  unreachable

47:                                               ; No predecessors!
  br label %48

48:                                               ; preds = %47, %34
  ret void
}