; Function Attrs: nounwind uwtable
define internal fastcc void @resolve_anymultirange_from_others(ptr noundef nonnull captures(none) %0) unnamed_addr #0 {
  %2 = getelementptr inbounds nuw i8, ptr %0, i64 8
  %3 = load i32, ptr %2, align 4
  %.not = icmp eq i32 %3, 0
  br i1 %.not, label %15, label %4

4:                                                ; preds = %1
  %5 = tail call i32 @getBaseType(i32 noundef %3) #8
  %6 = tail call i32 @get_range_multirange(i32 noundef %5) #8
  %.not7 = icmp eq i32 %6, 0
  br i1 %.not7, label %7, label %13

7:                                                ; preds = %4
  %8 = tail call zeroext i1 @errstart_cold(i32 noundef 21, ptr noundef null) #9
  tail call void @llvm.assume(i1 %8)
  %9 = tail call i32 @errcode(i32 noundef 67137668) #8
  %10 = load i32, ptr %2, align 4
  %11 = tail call ptr @format_type_be(i32 noundef %10) #8
  %12 = tail call i32 (ptr, ...) @errmsg(ptr noundef nonnull @.str.32, ptr noundef %11) #8
  tail call void @errfinish(ptr noundef nonnull @.str.1, i32 noundef 726, ptr noundef nonnull @__func__.resolve_anymultirange_from_others) #8
  unreachable

13:                                               ; preds = %4
  %14 = getelementptr inbounds nuw i8, ptr %0, i64 12
  store i32 %6, ptr %14, align 4
  ret void

15:                                               ; preds = %1
  %16 = tail call zeroext i1 @errstart_cold(i32 noundef 21, ptr noundef null) #9
  tail call void @llvm.assume(i1 %16)
  %17 = tail call i32 (ptr, ...) @errmsg_internal(ptr noundef nonnull @.str.30) #8
  tail call void @errfinish(ptr noundef nonnull @.str.1, i32 noundef 730, ptr noundef nonnull @__func__.resolve_anymultirange_from_others) #8
  unreachable
}